target datalayout = "e-m:e-p270:32:32-p271:32:32-p272:64:64-i64:64-i128:128-f80:128-n8:16:32:64-S128"
target triple = "x86_64-pc-linux-gnu"

; Function Attrs: nounwind uwtable
define i32 @Io_WriteAigerEncode(ptr noundef %0, i32 noundef %1, i32 noundef %2) #0 {
  %4 = alloca ptr, align 8
  %5 = alloca i32, align 4
  %6 = alloca i32, align 4
  %7 = alloca i8, align 1
  store ptr %0, ptr %4, align 8, !tbaa !3
  store i32 %1, ptr %5, align 4, !tbaa !8
  store i32 %2, ptr %6, align 4, !tbaa !8
  call void @llvm.lifetime.start.p0(i64 1, ptr %7) #10
  br label %8

8:                                                ; preds = %12, %3
  %9 = load i32, ptr %6, align 4, !tbaa !8
  %10 = and i32 %9, -128
  %11 = icmp ne i32 %10, 0
  br i1 %11, label %12, label %25

12:                                               ; preds = %8
  %13 = load i32, ptr %6, align 4, !tbaa !8
  %14 = and i32 %13, 127
  %15 = or i32 %14, 128
  %16 = trunc i32 %15 to i8
  store i8 %16, ptr %7, align 1, !tbaa !10
  %17 = load i8, ptr %7, align 1, !tbaa !10
  %18 = load ptr, ptr %4, align 8, !tbaa !3
  %19 = load i32, ptr %5, align 4, !tbaa !8
  %20 = add nsw i32 %19, 1
  store i32 %20, ptr %5, align 4, !tbaa !8
  %21 = sext i32 %19 to i64
  %22 = getelementptr inbounds i8, ptr %18, i64 %21
  store i8 %17, ptr %22, align 1, !tbaa !10
  %23 = load i32, ptr %6, align 4, !tbaa !8
  %24 = lshr i32 %23, 7
  store i32 %24, ptr %6, align 4, !tbaa !8
  br label %8, !llvm.loop !11

25:                                               ; preds = %8
  %26 = load i32, ptr %6, align 4, !tbaa !8
  %27 = trunc i32 %26 to i8
  store i8 %27, ptr %7, align 1, !tbaa !10
  %28 = load i8, ptr %7, align 1, !tbaa !10
  %29 = load ptr, ptr %4, align 8, !tbaa !3
  %30 = load i32, ptr %5, align 4, !tbaa !8
  %31 = add nsw i32 %30, 1
  store i32 %31, ptr %5, align 4, !tbaa !8
  %32 = sext i32 %30 to i64
  %33 = getelementptr inbounds i8, ptr %29, i64 %32
  store i8 %28, ptr %33, align 1, !tbaa !10
  %34 = load i32, ptr %5, align 4, !tbaa !8
  call void @llvm.lifetime.end.p0(i64 1, ptr %7) #10
  ret i32 %34
}