; Function Attrs: nofree norecurse nosync nounwind memory(argmem: write) uwtable
define range(i32 -2147483647, -2147483648) i32 @Io_WriteAigerEncode(ptr noundef writeonly captures(none) %0, i32 noundef %1, i32 noundef %2) local_unnamed_addr #0 {
  %.not11 = icmp ult i32 %2, 128
  br i1 %.not11, label %._crit_edge, label %.lr.ph.preheader

.lr.ph.preheader:                                 ; preds = %3
  %4 = sext i32 %1 to i64
  br label %.lr.ph

.lr.ph:                                           ; preds = %.lr.ph.preheader, %.lr.ph
  %indvars.iv = phi i64 [ %4, %.lr.ph.preheader ], [ %indvars.iv.next, %.lr.ph ]
  %.013 = phi i32 [ %2, %.lr.ph.preheader ], [ %8, %.lr.ph ]
  %5 = trunc i32 %.013 to i8
  %6 = or i8 %5, -128
  %indvars.iv.next = add nsw i64 %indvars.iv, 1
  %7 = getelementptr inbounds i8, ptr %0, i64 %indvars.iv
  store i8 %6, ptr %7, align 1, !tbaa !3
  %8 = lshr i32 %.013, 7
  %.not = icmp ult i32 %.013, 16384
  br i1 %.not, label %._crit_edge.loopexit, label %.lr.ph, !llvm.loop !6

._crit_edge.loopexit:                             ; preds = %.lr.ph
  %9 = trunc nsw i64 %indvars.iv.next to i32
  br label %._crit_edge

._crit_edge:                                      ; preds = %._crit_edge.loopexit, %3
  %.010.lcssa = phi i32 [ %1, %3 ], [ %9, %._crit_edge.loopexit ]
  %.0.lcssa = phi i32 [ %2, %3 ], [ %8, %._crit_edge.loopexit ]
  %10 = trunc nuw i32 %.0.lcssa to i8
  %11 = add nsw i32 %.010.lcssa, 1
  %12 = sext i32 %.010.lcssa to i64
  %13 = getelementptr inbounds i8, ptr %0, i64 %12
  store i8 %10, ptr %13, align 1, !tbaa !3
  ret i32 %11
}